; Function Attrs: mustprogress uwtable
define internal fastcc noundef zeroext i1 @_ZN9__gnu_cxx5__ops15_Iter_comp_iterIN5zxing6qrcode12_GLOBAL__N_116CenterComparatorEEclINS_17__normal_iteratorIPNS2_3RefINS3_13FinderPatternEEESt6vectorISB_SaISB_EEEESG_EEbT_T0_(ptr nocapture noundef nonnull readonly align 4 dereferenceable(4) %0, ptr nocapture readonly %1, ptr nocapture readonly %2) unnamed_addr #0 align 2 personality ptr @__gxx_personality_v0 {
  %4 = load ptr, ptr %1, align 8
  %.not.i.i = icmp eq ptr %4, null
  br i1 %.not.i.i, label %_ZN5zxing3RefINS_6qrcode13FinderPatternEEC2ERKS3_.exit, label %5

5:                                                ; preds = %3
  %6 = getelementptr inbounds i8, ptr %4, i64 8
  %7 = load i32, ptr %6, align 8
  %8 = add i32 %7, 1
  store i32 %8, ptr %6, align 8
  br label %_ZN5zxing3RefINS_6qrcode13FinderPatternEEC2ERKS3_.exit

_ZN5zxing3RefINS_6qrcode13FinderPatternEEC2ERKS3_.exit: ; preds = %5, %3
  %9 = load ptr, ptr %2, align 8
  %.not.i.i4 = icmp eq ptr %9, null
  br i1 %.not.i.i4, label %_ZN5zxing3RefINS_6qrcode13FinderPatternEEC2ERKS3_.exit7, label %10

10:                                               ; preds = %_ZN5zxing3RefINS_6qrcode13FinderPatternEEC2ERKS3_.exit
  %11 = getelementptr inbounds i8, ptr %9, i64 8
  %12 = load i32, ptr %11, align 8
  %13 = add i32 %12, 1
  store i32 %13, ptr %11, align 8
  br label %_ZN5zxing3RefINS_6qrcode13FinderPatternEEC2ERKS3_.exit7

_ZN5zxing3RefINS_6qrcode13FinderPatternEEC2ERKS3_.exit7: ; preds = %_ZN5zxing3RefINS_6qrcode13FinderPatternEEC2ERKS3_.exit, %10
  %14 = invoke noundef i32 @_ZNK5zxing6qrcode13FinderPattern8getCountEv(ptr noundef nonnull align 8 dereferenceable(40) %4)
          to label %.noexc unwind label %50

.noexc:                                           ; preds = %_ZN5zxing3RefINS_6qrcode13FinderPatternEEC2ERKS3_.exit7
  %15 = invoke noundef i32 @_ZNK5zxing6qrcode13FinderPattern8getCountEv(ptr noundef nonnull align 8 dereferenceable(40) %9)
          to label %.noexc8 unwind label %50

.noexc8:                                          ; preds = %.noexc
  %.not.i = icmp eq i32 %14, %15
  br i1 %.not.i, label %20, label %16

16:                                               ; preds = %.noexc8
  %17 = invoke noundef i32 @_ZNK5zxing6qrcode13FinderPattern8getCountEv(ptr noundef nonnull align 8 dereferenceable(40) %4)
          to label %.noexc9 unwind label %50

.noexc9:                                          ; preds = %16
  %18 = invoke noundef i32 @_ZNK5zxing6qrcode13FinderPattern8getCountEv(ptr noundef nonnull align 8 dereferenceable(40) %9)
          to label %.noexc10 unwind label %50

.noexc10:                                         ; preds = %.noexc9
  %19 = icmp sgt i32 %17, %18
  br label %_ZN5zxing6qrcode12_GLOBAL__N_116CenterComparatorclENS_3RefINS0_13FinderPatternEEES5_.exit

20:                                               ; preds = %.noexc8
  %21 = invoke noundef float @_ZNK5zxing6qrcode13FinderPattern22getEstimatedModuleSizeEv(ptr noundef nonnull align 8 dereferenceable(40) %4)
          to label %.noexc11 unwind label %50

.noexc11:                                         ; preds = %20
  %22 = load float, ptr %0, align 4
  %23 = invoke noundef float @_ZNK5zxing6qrcode13FinderPattern22getEstimatedModuleSizeEv(ptr noundef nonnull align 8 dereferenceable(40) %9)
          to label %.noexc12 unwind label %50

.noexc12:                                         ; preds = %.noexc11
  %24 = load float, ptr %0, align 4
  %25 = insertelement <2 x float> poison, float %21, i64 0
  %26 = insertelement <2 x float> %25, float %23, i64 1
  %27 = insertelement <2 x float> poison, float %22, i64 0
  %28 = insertelement <2 x float> %27, float %24, i64 1
  %29 = fsub <2 x float> %26, %28
  %30 = tail call <2 x float> @llvm.fabs.v2f32(<2 x float> %29)
  %31 = extractelement <2 x float> %30, i64 0
  %32 = extractelement <2 x float> %30, i64 1
  %33 = fcmp olt float %31, %32
  br label %_ZN5zxing6qrcode12_GLOBAL__N_116CenterComparatorclENS_3RefINS0_13FinderPatternEEES5_.exit

_ZN5zxing6qrcode12_GLOBAL__N_116CenterComparatorclENS_3RefINS0_13FinderPatternEEES5_.exit: ; preds = %.noexc10, %.noexc12
  %.0.i = phi i1 [ %19, %.noexc10 ], [ %33, %.noexc12 ]
  %34 = getelementptr inbounds i8, ptr %9, i64 8
  %35 = load i32, ptr %34, align 8
  %36 = add i32 %35, -1
  store i32 %36, ptr %34, align 8
  %37 = icmp eq i32 %36, 0
  br i1 %37, label %38, label %_ZN5zxing3RefINS_6qrcode13FinderPatternEED2Ev.exit

38:                                               ; preds = %_ZN5zxing6qrcode12_GLOBAL__N_116CenterComparatorclENS_3RefINS0_13FinderPatternEEES5_.exit
  store i32 -559026175, ptr %34, align 8
  %39 = load ptr, ptr %9, align 8
  %40 = getelementptr inbounds i8, ptr %39, i64 8
  %41 = load ptr, ptr %40, align 8
  tail call void %41(ptr noundef nonnull align 8 dereferenceable(12) %9) #22
  br label %_ZN5zxing3RefINS_6qrcode13FinderPatternEED2Ev.exit

_ZN5zxing3RefINS_6qrcode13FinderPatternEED2Ev.exit: ; preds = %38, %_ZN5zxing6qrcode12_GLOBAL__N_116CenterComparatorclENS_3RefINS0_13FinderPatternEEES5_.exit
  %42 = getelementptr inbounds i8, ptr %4, i64 8
  %43 = load i32, ptr %42, align 8
  %44 = add i32 %43, -1
  store i32 %44, ptr %42, align 8
  %45 = icmp eq i32 %44, 0
  br i1 %45, label %46, label %_ZN5zxing3RefINS_6qrcode13FinderPatternEED2Ev.exit15

46:                                               ; preds = %_ZN5zxing3RefINS_6qrcode13FinderPatternEED2Ev.exit
  store i32 -559026175, ptr %42, align 8
  %47 = load ptr, ptr %4, align 8
  %48 = getelementptr inbounds i8, ptr %47, i64 8
  %49 = load ptr, ptr %48, align 8
  tail call void %49(ptr noundef nonnull align 8 dereferenceable(12) %4) #22
  br label %_ZN5zxing3RefINS_6qrcode13FinderPatternEED2Ev.exit15

_ZN5zxing3RefINS_6qrcode13FinderPatternEED2Ev.exit15: ; preds = %_ZN5zxing3RefINS_6qrcode13FinderPatternEED2Ev.exit, %46
  ret i1 %.0.i

50:                                               ; preds = %.noexc11, %20, %.noexc9, %16, %.noexc, %_ZN5zxing3RefINS_6qrcode13FinderPatternEEC2ERKS3_.exit7
  %51 = landingpad { ptr, i32 }
          cleanup
  br i1 %.not.i.i4, label %_ZN5zxing3RefINS_6qrcode13FinderPatternEED2Ev.exit17, label %52

52:                                               ; preds = %50
  %53 = getelementptr inbounds i8, ptr %9, i64 8
  %54 = load i32, ptr %53, align 8
  %55 = add i32 %54, -1
  store i32 %55, ptr %53, align 8
  %56 = icmp eq i32 %55, 0
  br i1 %56, label %57, label %_ZN5zxing3RefINS_6qrcode13FinderPatternEED2Ev.exit17

57:                                               ; preds = %52
  store i32 -559026175, ptr %53, align 8
  %58 = load ptr, ptr %9, align 8
  %59 = getelementptr inbounds i8, ptr %58, i64 8
  %60 = load ptr, ptr %59, align 8
  tail call void %60(ptr noundef nonnull align 8 dereferenceable(12) %9) #22
  br label %_ZN5zxing3RefINS_6qrcode13FinderPatternEED2Ev.exit17

_ZN5zxing3RefINS_6qrcode13FinderPatternEED2Ev.exit17: ; preds = %57, %52, %50
  br i1 %.not.i.i, label %_ZN5zxing3RefINS_6qrcode13FinderPatternEED2Ev.exit19, label %61

61:                                               ; preds = %_ZN5zxing3RefINS_6qrcode13FinderPatternEED2Ev.exit17
  %62 = getelementptr inbounds i8, ptr %4, i64 8
  %63 = load i32, ptr %62, align 8
  %64 = add i32 %63, -1
  store i32 %64, ptr %62, align 8
  %65 = icmp eq i32 %64, 0
  br i1 %65, label %66, label %_ZN5zxing3RefINS_6qrcode13FinderPatternEED2Ev.exit19

66:                                               ; preds = %61
  store i32 -559026175, ptr %62, align 8
  %67 = load ptr, ptr %4, align 8
  %68 = getelementptr inbounds i8, ptr %67, i64 8
  %69 = load ptr, ptr %68, align 8
  tail call void %69(ptr noundef nonnull align 8 dereferenceable(12) %4) #22
  br label %_ZN5zxing3RefINS_6qrcode13FinderPatternEED2Ev.exit19

_ZN5zxing3RefINS_6qrcode13FinderPatternEED2Ev.exit19: ; preds = %_ZN5zxing3RefINS_6qrcode13FinderPatternEED2Ev.exit17, %61, %66
  resume { ptr, i32 } %51
}